target datalayout = "e-m:e-p270:32:32-p271:32:32-p272:64:64-i64:64-i128:128-f80:128-n8:16:32:64-S128"
target triple = "x86_64-pc-linux-gnu"

%struct.wpacket_st = type { ptr, ptr, i64, i64, i64, ptr, i8 }
%struct.wpacket_sub = type { ptr, i64, i64, i64, i32 }

; Function Attrs: nounwind uwtable
define dso_local i32 @WPACKET_set_flags(ptr noundef %0, i32 noundef %1) #0 {
  %3 = alloca i32, align 4
  %4 = alloca ptr, align 8
  %5 = alloca i32, align 4
  store ptr %0, ptr %4, align 8, !tbaa !4
  store i32 %1, ptr %5, align 4, !tbaa !35
  %6 = load ptr, ptr %4, align 8, !tbaa !4
  %7 = getelementptr inbounds nuw %struct.wpacket_st, ptr %6, i32 0, i32 5
  %8 = load ptr, ptr %7, align 8, !tbaa !20
  %9 = icmp ne ptr %8, null
  %10 = zext i1 %9 to i32
  %11 = icmp ne i32 %10, 0
  %12 = xor i1 %11, true
  %13 = xor i1 %12, true
  %14 = zext i1 %13 to i32
  %15 = sext i32 %14 to i64
  %16 = call i64 @llvm.expect.i64(i64 %15, i64 1)
  %17 = icmp ne i64 %16, 0
  br i1 %17, label %19, label %18

18:                                               ; preds = %2
  store i32 0, ptr %3, align 4
  br label %25

19:                                               ; preds = %2
  %20 = load i32, ptr %5, align 4, !tbaa !35
  %21 = load ptr, ptr %4, align 8, !tbaa !4
  %22 = getelementptr inbounds nuw %struct.wpacket_st, ptr %21, i32 0, i32 5
  %23 = load ptr, ptr %22, align 8, !tbaa !20
  %24 = getelementptr inbounds nuw %struct.wpacket_sub, ptr %23, i32 0, i32 4
  store i32 %20, ptr %24, align 8, !tbaa !36
  store i32 1, ptr %3, align 4
  br label %25

25:                                               ; preds = %19, %18
  %26 = load i32, ptr %3, align 4
  ret i32 %26
}