; Function Attrs: mustprogress nofree norecurse nosync nounwind willreturn memory(write, argmem: readwrite, inaccessiblemem: none) uwtable
define dso_local range(i32 0, 2) i32 @WPACKET_set_flags(ptr noundef readonly captures(none) %0, i32 noundef %1) local_unnamed_addr #4 {
  %3 = getelementptr inbounds nuw i8, ptr %0, i64 40
  %4 = load ptr, ptr %3, align 8, !tbaa !4
  %.not = icmp eq ptr %4, null
  br i1 %.not, label %7, label %5, !prof !24

5:                                                ; preds = %2
  %6 = getelementptr inbounds nuw i8, ptr %4, i64 32
  store i32 %1, ptr %6, align 8, !tbaa !30
  br label %7

7:                                                ; preds = %2, %5
  %.0 = phi i32 [ 1, %5 ], [ 0, %2 ]
  ret i32 %.0
}